; Function Attrs: nounwind uwtable
define ptr @l_Array_mapMUnsafe_map___at_Lean_Elab_Term_clearInMatch___spec__1(ptr noundef readonly captures(none) %0, i64 noundef %1, i64 noundef %2, ptr noundef %3) local_unnamed_addr #0 {
  %.not40 = icmp ult i64 %2, %1
  br i1 %.not40, label %.lr.ph, label %._crit_edge

.lr.ph:                                           ; preds = %4, %48
  %.01942 = phi i64 [ %32, %48 ], [ %2, %4 ]
  %.02141 = phi ptr [ %.0.i.i29, %48 ], [ %3, %4 ]
  %5 = getelementptr inbounds nuw i8, ptr %.02141, i64 24
  %6 = getelementptr inbounds nuw [0 x ptr], ptr %5, i64 0, i64 %.01942
  %7 = load ptr, ptr %6, align 8, !tbaa !12
  %8 = ptrtoint ptr %7 to i64
  %9 = and i64 %8, 1
  %.not.i = icmp eq i64 %9, 0
  br i1 %.not.i, label %10, label %lean_array_uget.exit

10:                                               ; preds = %.lr.ph
  %.val.i.i = load i32, ptr %7, align 4, !tbaa !4
  %11 = icmp sgt i32 %.val.i.i, 0
  br i1 %11, label %12, label %14, !prof !9

12:                                               ; preds = %10
  %13 = add nuw i32 %.val.i.i, 1
  store i32 %13, ptr %7, align 4, !tbaa !4
  br label %lean_array_uget.exit

14:                                               ; preds = %10
  %.not.i.i = icmp eq i32 %.val.i.i, 0
  br i1 %.not.i.i, label %lean_array_uget.exit, label %15

15:                                               ; preds = %14
  tail call void @lean_inc_ref_cold(ptr noundef nonnull %7) #5
  br label %lean_array_uget.exit

lean_array_uget.exit:                             ; preds = %.lr.ph, %12, %14, %15
  %.val.i.i24 = load i32, ptr %.02141, align 4, !tbaa !4
  %16 = icmp eq i32 %.val.i.i24, 1
  br i1 %16, label %lean_ensure_exclusive_array.exit.i, label %17

17:                                               ; preds = %lean_array_uget.exit
  %18 = tail call ptr @lean_copy_expand_array(ptr noundef nonnull %.02141, i1 noundef zeroext false) #5
  br label %lean_ensure_exclusive_array.exit.i

lean_ensure_exclusive_array.exit.i:               ; preds = %17, %lean_array_uget.exit
  %.0.i.i = phi ptr [ %18, %17 ], [ %.02141, %lean_array_uget.exit ]
  %19 = getelementptr inbounds nuw i8, ptr %.0.i.i, i64 24
  %20 = getelementptr inbounds nuw ptr, ptr %19, i64 %.01942
  %21 = load ptr, ptr %20, align 8, !tbaa !12
  %22 = ptrtoint ptr %21 to i64
  %23 = and i64 %22, 1
  %.not.i25 = icmp eq i64 %23, 0
  br i1 %.not.i25, label %24, label %lean_array_uset.exit

24:                                               ; preds = %lean_ensure_exclusive_array.exit.i
  %25 = load i32, ptr %21, align 4, !tbaa !4
  %26 = icmp sgt i32 %25, 1
  br i1 %26, label %27, label %29, !prof !9

27:                                               ; preds = %24
  %28 = add nsw i32 %25, -1
  store i32 %28, ptr %21, align 4, !tbaa !4
  br label %lean_array_uset.exit

29:                                               ; preds = %24
  %.not.i.i26 = icmp eq i32 %25, 0
  br i1 %.not.i.i26, label %lean_array_uset.exit, label %30

30:                                               ; preds = %29
  tail call void @lean_dec_ref_cold(ptr noundef nonnull %21) #5
  br label %lean_array_uset.exit

lean_array_uset.exit:                             ; preds = %lean_ensure_exclusive_array.exit.i, %27, %29, %30
  store ptr inttoptr (i64 1 to ptr), ptr %20, align 8, !tbaa !12
  %31 = tail call ptr @l_Lean_Elab_Term_clearInMatchAlt(ptr noundef %7, ptr noundef %0)
  %32 = add nuw i64 %.01942, 1
  %.val.i.i27 = load i32, ptr %.0.i.i, align 4, !tbaa !4
  %33 = icmp eq i32 %.val.i.i27, 1
  br i1 %33, label %lean_ensure_exclusive_array.exit.i28, label %34

34:                                               ; preds = %lean_array_uset.exit
  %35 = tail call ptr @lean_copy_expand_array(ptr noundef nonnull %.0.i.i, i1 noundef zeroext false) #5
  br label %lean_ensure_exclusive_array.exit.i28

lean_ensure_exclusive_array.exit.i28:             ; preds = %34, %lean_array_uset.exit
  %.0.i.i29 = phi ptr [ %35, %34 ], [ %.0.i.i, %lean_array_uset.exit ]
  %36 = getelementptr inbounds nuw i8, ptr %.0.i.i29, i64 24
  %37 = getelementptr inbounds nuw ptr, ptr %36, i64 %.01942
  %38 = load ptr, ptr %37, align 8, !tbaa !12
  %39 = ptrtoint ptr %38 to i64
  %40 = and i64 %39, 1
  %.not.i30 = icmp eq i64 %40, 0
  br i1 %.not.i30, label %41, label %48

41:                                               ; preds = %lean_ensure_exclusive_array.exit.i28
  %42 = load i32, ptr %38, align 4, !tbaa !4
  %43 = icmp sgt i32 %42, 1
  br i1 %43, label %44, label %46, !prof !9

44:                                               ; preds = %41
  %45 = add nsw i32 %42, -1
  store i32 %45, ptr %38, align 4, !tbaa !4
  br label %48

46:                                               ; preds = %41
  %.not.i.i31 = icmp eq i32 %42, 0
  br i1 %.not.i.i31, label %48, label %47

47:                                               ; preds = %46
  tail call void @lean_dec_ref_cold(ptr noundef nonnull %38) #5
  br label %48

48:                                               ; preds = %47, %46, %44, %lean_ensure_exclusive_array.exit.i28
  store ptr %31, ptr %37, align 8, !tbaa !12
  %exitcond.not = icmp eq i64 %32, %1
  br i1 %exitcond.not, label %._crit_edge, label %.lr.ph

._crit_edge:                                      ; preds = %48, %4
  %.021.lcssa = phi ptr [ %3, %4 ], [ %.0.i.i29, %48 ]
  ret ptr %.021.lcssa
}